; ModuleID = 'source-C-CXX/28/609.c'
source_filename = "source-C-CXX/28/609.c"
target datalayout = "e-m:e-p270:32:32-p271:32:32-p272:64:64-i64:64-f80:128-n8:16:32:64-S128"
target triple = "x86_64-pc-linux-gnu"

@.str = private unnamed_addr constant [3 x i8] c"%d\00", align 1
@.str.1 = private unnamed_addr constant [6 x i8] c"%.3f\0A\00", align 1

; Function Attrs: nofree nounwind sspstrong uwtable
define dso_local i32 @main() local_unnamed_addr #0 {
  %1 = alloca i32, align 4
  %2 = alloca [100 x i32], align 16
  %3 = bitcast i32* %1 to i8*
  call void @llvm.lifetime.start.p0i8(i64 4, i8* nonnull %3) #3
  %4 = bitcast [100 x i32]* %2 to i8*
  call void @llvm.lifetime.start.p0i8(i64 400, i8* nonnull %4) #3
  %5 = call i32 (i8*, ...) @__isoc99_scanf(i8* getelementptr inbounds ([3 x i8], [3 x i8]* @.str, i64 0, i64 0), i32* nonnull %1)
  %6 = load i32, i32* %1, align 4, !tbaa !5
  %7 = icmp sgt i32 %6, 0
  br i1 %7, label %10, label %66

8:                                                ; preds = %10
  %9 = icmp sgt i32 %15, 0
  br i1 %9, label %18, label %66

10:                                               ; preds = %0, %10
  %11 = phi i64 [ %14, %10 ], [ 0, %0 ]
  %12 = getelementptr inbounds [100 x i32], [100 x i32]* %2, i64 0, i64 %11
  %13 = call i32 (i8*, ...) @__isoc99_scanf(i8* getelementptr inbounds ([3 x i8], [3 x i8]* @.str, i64 0, i64 0), i32* nonnull %12)
  %14 = add nuw nsw i64 %11, 1
  %15 = load i32, i32* %1, align 4, !tbaa !5
  %16 = sext i32 %15 to i64
  %17 = icmp slt i64 %14, %16
  br i1 %17, label %10, label %8, !llvm.loop !9

18:                                               ; preds = %8, %59
  %19 = phi i64 [ %62, %59 ], [ 0, %8 ]
  %20 = getelementptr inbounds [100 x i32], [100 x i32]* %2, i64 0, i64 %19
  %21 = load i32, i32* %20, align 4, !tbaa !5
  %22 = icmp sgt i32 %21, 0
  br i1 %22, label %23, label %59

23:                                               ; preds = %18
  %24 = zext i32 %21 to i64
  %25 = and i64 %24, 1
  %26 = icmp eq i32 %21, 1
  br i1 %26, label %48, label %27

27:                                               ; preds = %23
  %28 = and i64 %24, 4294967294
  br label %29

29:                                               ; preds = %29, %27
  %30 = phi double [ 0.000000e+00, %27 ], [ %45, %29 ]
  %31 = phi <2 x i32> [ <i32 2, i32 1>, %27 ], [ %34, %29 ]
  %32 = phi <2 x i32> [ <i32 3, i32 2>, %27 ], [ %40, %29 ]
  %33 = phi i64 [ %28, %27 ], [ %46, %29 ]
  %34 = add nsw <2 x i32> %32, %31
  %35 = sitofp <2 x i32> %31 to <2 x double>
  %36 = extractelement <2 x double> %35, i32 0
  %37 = extractelement <2 x double> %35, i32 1
  %38 = fdiv double %36, %37
  %39 = fadd double %30, %38
  %40 = add nsw <2 x i32> %34, %32
  %41 = sitofp <2 x i32> %32 to <2 x double>
  %42 = extractelement <2 x double> %41, i32 0
  %43 = extractelement <2 x double> %41, i32 1
  %44 = fdiv double %42, %43
  %45 = fadd double %39, %44
  %46 = add i64 %33, -2
  %47 = icmp eq i64 %46, 0
  br i1 %47, label %48, label %29, !llvm.loop !11

48:                                               ; preds = %29, %23
  %49 = phi double [ undef, %23 ], [ %45, %29 ]
  %50 = phi double [ 0.000000e+00, %23 ], [ %45, %29 ]
  %51 = phi <2 x i32> [ <i32 2, i32 1>, %23 ], [ %34, %29 ]
  %52 = icmp eq i64 %25, 0
  br i1 %52, label %59, label %53

53:                                               ; preds = %48
  %54 = sitofp <2 x i32> %51 to <2 x double>
  %55 = extractelement <2 x double> %54, i32 0
  %56 = extractelement <2 x double> %54, i32 1
  %57 = fdiv double %55, %56
  %58 = fadd double %50, %57
  br label %59

59:                                               ; preds = %53, %48, %18
  %60 = phi double [ 0.000000e+00, %18 ], [ %49, %48 ], [ %58, %53 ]
  %61 = call i32 (i8*, ...) @printf(i8* nonnull dereferenceable(1) getelementptr inbounds ([6 x i8], [6 x i8]* @.str.1, i64 0, i64 0), double %60)
  %62 = add nuw nsw i64 %19, 1
  %63 = load i32, i32* %1, align 4, !tbaa !5
  %64 = sext i32 %63 to i64
  %65 = icmp slt i64 %62, %64
  br i1 %65, label %18, label %66, !llvm.loop !12

66:                                               ; preds = %59, %0, %8
  call void @llvm.lifetime.end.p0i8(i64 400, i8* nonnull %4) #3
  call void @llvm.lifetime.end.p0i8(i64 4, i8* nonnull %3) #3
  ret i32 0
}

; Function Attrs: argmemonly mustprogress nofree nosync nounwind willreturn
declare void @llvm.lifetime.start.p0i8(i64 immarg, i8* nocapture) #1

; Function Attrs: nofree nounwind
declare noundef i32 @__isoc99_scanf(i8* nocapture noundef readonly, ...) local_unnamed_addr #2

; Function Attrs: nofree nounwind
declare noundef i32 @printf(i8* nocapture noundef readonly, ...) local_unnamed_addr #2

; Function Attrs: argmemonly mustprogress nofree nosync nounwind willreturn
declare void @llvm.lifetime.end.p0i8(i64 immarg, i8* nocapture) #1


!llvm.module.flags = !{!0, !1, !2, !3}
!llvm.ident = !{!4}

!0 = !{i32 1, !"wchar_size", i32 4}
!1 = !{i32 7, !"PIC Level", i32 2}
!2 = !{i32 7, !"PIE Level", i32 2}
!3 = !{i32 7, !"uwtable", i32 1}
!4 = !{!"clang version 13.0.0"}
!5 = !{!6, !6, i64 0}
!6 = !{!"int", !7, i64 0}
!7 = !{!"omnipotent char", !8, i64 0}
!8 = !{!"Simple C/C++ TBAA"}
!9 = distinct !{!9, !10}
!10 = !{!"llvm.loop.mustprogress"}
!11 = distinct !{!11, !10}
!12 = distinct !{!12, !10}
